target datalayout = "e-m:e-p270:32:32-p271:32:32-p272:64:64-i64:64-i128:128-f80:128-n8:16:32:64-S128"
target triple = "x86_64-pc-linux-gnu"

%struct._lv_global_t = type { i8, i8, %struct.lv_ll_t, ptr, ptr, %struct.lv_ll_t, i8, i32, i32, ptr, %struct.lv_ll_t, ptr, %struct.lv_ll_t, ptr, ptr, i32, ptr, i8, i32, i32, ptr, i32, %struct.lv_timer_state_t, %struct.lv_anim_state_t, %struct.lv_tick_state_t, %struct._lv_draw_buf_handlers_t, %struct._lv_draw_buf_handlers_t, %struct._lv_draw_buf_handlers_t, %struct.lv_ll_t, ptr, ptr, %struct.lv_draw_global_info_t, [4 x %struct.lv_draw_sw_mask_radius_circle_dsc_t], ptr, ptr, ptr, %struct.lv_tlsf_state_t, %struct.lv_ll_t, ptr, ptr, %struct.lv_style_t, i64, ptr, i32, ptr }
%struct.lv_timer_state_t = type { %struct.lv_ll_t, i8, i8, i8, i8, i32, i8, i32, i32, i32, i32, ptr, ptr }
%struct.lv_anim_state_t = type { i8, i8, ptr, %struct.lv_ll_t }
%struct.lv_tick_state_t = type { i32, i8, ptr, ptr }
%struct._lv_draw_buf_handlers_t = type { ptr, ptr, ptr, ptr, ptr, ptr }
%struct.lv_draw_global_info_t = type { ptr, i32, i32, i32, i32, i8 }
%struct.lv_draw_sw_mask_radius_circle_dsc_t = type { ptr, ptr, ptr, ptr, i32, i32, i32 }
%struct.lv_tlsf_state_t = type { ptr, i64, i64, %struct.lv_ll_t }
%struct.lv_ll_t = type { i32, ptr, ptr }
%struct.lv_style_t = type { ptr, i32, i8 }
%struct._lv_obj_t = type { ptr, ptr, ptr, ptr, ptr, %struct.lv_area_t, i32, i16, i16 }
%struct.lv_area_t = type { i32, i32, i32, i32 }
%union.lv_style_value_t = type { ptr }
%struct._lv_obj_class_t = type { ptr, ptr, ptr, ptr, ptr, ptr, i32, i32, i32 }
%struct._lv_anim_t = type { ptr, ptr, ptr, ptr, ptr, ptr, ptr, ptr, ptr, i32, i32, i32, i32, i32, i32, i32, i32, i32, %union._lv_anim_path_para_t, i32, i32, i32, i8 }
%union._lv_anim_path_para_t = type { %struct.lv_anim_bezier3_para_t }
%struct.lv_anim_bezier3_para_t = type { i16, i16, i16, i16 }

@lv_global = external global %struct._lv_global_t, align 8
@lv_style_builtin_prop_flag_lookup_table = external constant [0 x i8], align 1

; Function Attrs: inlinehint nounwind uwtable
define internal i32 @lv_obj_style_get_selector_part(i32 noundef %0) #3 {
  %2 = alloca i32, align 4
  store i32 %0, ptr %2, align 4, !tbaa !32
  %3 = load i32, ptr %2, align 4, !tbaa !32
  %4 = and i32 %3, 16711680
  ret i32 %4
}

; Function Attrs: nounwind uwtable
define internal i32 @get_selector_style_prop(ptr noundef %0, i32 noundef %1, i8 noundef zeroext %2, ptr noundef %3) #0 {
  %5 = alloca i32, align 4
  %6 = alloca ptr, align 8
  %7 = alloca i32, align 4
  %8 = alloca i8, align 1
  %9 = alloca ptr, align 8
  %10 = alloca i32, align 4
  %11 = alloca i32, align 4
  %12 = alloca i32, align 4
  %13 = alloca i8, align 1
  %14 = alloca ptr, align 8
  store ptr %0, ptr %6, align 8, !tbaa !30
  store i32 %1, ptr %7, align 4, !tbaa !32
  store i8 %2, ptr %8, align 1, !tbaa !43
  store ptr %3, ptr %9, align 8, !tbaa !31
  call void @llvm.lifetime.start.p0(i64 4, ptr %10) #6
  call void @llvm.lifetime.start.p0(i64 4, ptr %11) #6
  %15 = load i32, ptr %7, align 4, !tbaa !32
  %16 = call i32 @lv_obj_style_get_selector_part(i32 noundef %15)
  store i32 %16, ptr %11, align 4, !tbaa !32
  %17 = load ptr, ptr %6, align 8, !tbaa !30
  %18 = load i32, ptr %7, align 4, !tbaa !32
  %19 = load i8, ptr %8, align 1, !tbaa !43
  %20 = load ptr, ptr %9, align 8, !tbaa !31
  %21 = call i32 @get_prop_core(ptr noundef %17, i32 noundef %18, i8 noundef zeroext %19, ptr noundef %20)
  store i32 %21, ptr %10, align 4, !tbaa !32
  %22 = load i32, ptr %10, align 4, !tbaa !32
  %23 = icmp eq i32 %22, 1
  br i1 %23, label %24, label %25

24:                                               ; preds = %4
  store i32 1, ptr %5, align 4
  store i32 1, ptr %12, align 4
  br label %144

25:                                               ; preds = %4
  call void @llvm.lifetime.start.p0(i64 1, ptr %13) #6
  store i8 0, ptr %13, align 1, !tbaa !47
  %26 = load i8, ptr %8, align 1, !tbaa !43
  %27 = zext i8 %26 to i32
  %28 = icmp slt i32 %27, 141
  br i1 %28, label %29, label %38

29:                                               ; preds = %25
  %30 = load i8, ptr %8, align 1, !tbaa !43
  %31 = zext i8 %30 to i64
  %32 = getelementptr inbounds nuw [0 x i8], ptr @lv_style_builtin_prop_flag_lookup_table, i64 0, i64 %31
  %33 = load i8, ptr %32, align 1, !tbaa !43
  %34 = zext i8 %33 to i32
  %35 = and i32 %34, 1
  %36 = icmp ne i32 %35, 0
  %37 = zext i1 %36 to i8
  store i8 %37, ptr %13, align 1, !tbaa !47
  br label %54

38:                                               ; preds = %25
  %39 = load ptr, ptr getelementptr inbounds nuw (%struct._lv_global_t, ptr @lv_global, i32 0, i32 9), align 8, !tbaa !3
  %40 = icmp ne ptr %39, null
  br i1 %40, label %41, label %53

41:                                               ; preds = %38
  %42 = load ptr, ptr getelementptr inbounds nuw (%struct._lv_global_t, ptr @lv_global, i32 0, i32 9), align 8, !tbaa !3
  %43 = load i8, ptr %8, align 1, !tbaa !43
  %44 = zext i8 %43 to i32
  %45 = sub nsw i32 %44, 141
  %46 = sext i32 %45 to i64
  %47 = getelementptr inbounds i8, ptr %42, i64 %46
  %48 = load i8, ptr %47, align 1, !tbaa !43
  %49 = zext i8 %48 to i32
  %50 = and i32 %49, 1
  %51 = icmp ne i32 %50, 0
  %52 = zext i1 %51 to i8
  store i8 %52, ptr %13, align 1, !tbaa !47
  br label %53

53:                                               ; preds = %41, %38
  br label %54

54:                                               ; preds = %53, %29
  %55 = load i8, ptr %13, align 1, !tbaa !47, !range !54, !noundef !55
  %56 = trunc i8 %55 to i1
  br i1 %56, label %57, label %89

57:                                               ; preds = %54
  %58 = load i32, ptr %11, align 4, !tbaa !32
  %59 = icmp ne i32 %58, 0
  br i1 %59, label %60, label %61

60:                                               ; preds = %57
  store i32 0, ptr %11, align 4, !tbaa !32
  br label %65

61:                                               ; preds = %57
  %62 = load ptr, ptr %6, align 8, !tbaa !30
  %63 = getelementptr inbounds nuw %struct._lv_obj_t, ptr %62, i32 0, i32 1
  %64 = load ptr, ptr %63, align 8, !tbaa !93
  store ptr %64, ptr %6, align 8, !tbaa !30
  br label %65

65:                                               ; preds = %61, %60
  br label %66

66:                                               ; preds = %84, %65
  %67 = load ptr, ptr %6, align 8, !tbaa !30
  %68 = icmp ne ptr %67, null
  br i1 %68, label %69, label %88

69:                                               ; preds = %66
  %70 = load i32, ptr %11, align 4, !tbaa !32
  %71 = load ptr, ptr %6, align 8, !tbaa !30
  %72 = getelementptr inbounds nuw %struct._lv_obj_t, ptr %71, i32 0, i32 7
  %73 = load i16, ptr %72, align 4, !tbaa !91
  %74 = zext i16 %73 to i32
  %75 = or i32 %70, %74
  store i32 %75, ptr %7, align 4, !tbaa !32
  %76 = load ptr, ptr %6, align 8, !tbaa !30
  %77 = load i32, ptr %7, align 4, !tbaa !32
  %78 = load i8, ptr %8, align 1, !tbaa !43
  %79 = load ptr, ptr %9, align 8, !tbaa !31
  %80 = call i32 @get_prop_core(ptr noundef %76, i32 noundef %77, i8 noundef zeroext %78, ptr noundef %79)
  store i32 %80, ptr %10, align 4, !tbaa !32
  %81 = load i32, ptr %10, align 4, !tbaa !32
  %82 = icmp eq i32 %81, 1
  br i1 %82, label %83, label %84

83:                                               ; preds = %69
  store i32 1, ptr %5, align 4
  store i32 1, ptr %12, align 4
  br label %143

84:                                               ; preds = %69
  %85 = load ptr, ptr %6, align 8, !tbaa !30
  %86 = getelementptr inbounds nuw %struct._lv_obj_t, ptr %85, i32 0, i32 1
  %87 = load ptr, ptr %86, align 8, !tbaa !93
  store ptr %87, ptr %6, align 8, !tbaa !30
  br label %66, !llvm.loop !94

88:                                               ; preds = %66
  br label %142

89:                                               ; preds = %54
  %90 = load i32, ptr %11, align 4, !tbaa !32
  %91 = icmp eq i32 %90, 0
  br i1 %91, label %92, label %141

92:                                               ; preds = %89
  %93 = load i8, ptr %8, align 1, !tbaa !43
  %94 = zext i8 %93 to i32
  %95 = icmp eq i32 %94, 1
  br i1 %95, label %100, label %96

96:                                               ; preds = %92
  %97 = load i8, ptr %8, align 1, !tbaa !43
  %98 = zext i8 %97 to i32
  %99 = icmp eq i32 %98, 2
  br i1 %99, label %100, label %141

100:                                              ; preds = %96, %92
  call void @llvm.lifetime.start.p0(i64 8, ptr %14) #6
  %101 = load ptr, ptr %6, align 8, !tbaa !30
  %102 = getelementptr inbounds nuw %struct._lv_obj_t, ptr %101, i32 0, i32 0
  %103 = load ptr, ptr %102, align 8, !tbaa !95
  store ptr %103, ptr %14, align 8, !tbaa !96
  br label %104

104:                                              ; preds = %133, %100
  %105 = load ptr, ptr %14, align 8, !tbaa !96
  %106 = icmp ne ptr %105, null
  br i1 %106, label %107, label %137

107:                                              ; preds = %104
  %108 = load i8, ptr %8, align 1, !tbaa !43
  %109 = zext i8 %108 to i32
  %110 = icmp eq i32 %109, 1
  br i1 %110, label %111, label %122

111:                                              ; preds = %107
  %112 = load ptr, ptr %14, align 8, !tbaa !96
  %113 = getelementptr inbounds nuw %struct._lv_obj_class_t, ptr %112, i32 0, i32 6
  %114 = load i32, ptr %113, align 8, !tbaa !97
  %115 = icmp ne i32 %114, 0
  br i1 %115, label %116, label %121

116:                                              ; preds = %111
  %117 = load ptr, ptr %14, align 8, !tbaa !96
  %118 = getelementptr inbounds nuw %struct._lv_obj_class_t, ptr %117, i32 0, i32 6
  %119 = load i32, ptr %118, align 8, !tbaa !97
  %120 = load ptr, ptr %9, align 8, !tbaa !31
  store i32 %119, ptr %120, align 8, !tbaa !43
  store i32 1, ptr %5, align 4
  store i32 1, ptr %12, align 4
  br label %138

121:                                              ; preds = %111
  br label %133

122:                                              ; preds = %107
  %123 = load ptr, ptr %14, align 8, !tbaa !96
  %124 = getelementptr inbounds nuw %struct._lv_obj_class_t, ptr %123, i32 0, i32 7
  %125 = load i32, ptr %124, align 4, !tbaa !99
  %126 = icmp ne i32 %125, 0
  br i1 %126, label %127, label %132

127:                                              ; preds = %122
  %128 = load ptr, ptr %14, align 8, !tbaa !96
  %129 = getelementptr inbounds nuw %struct._lv_obj_class_t, ptr %128, i32 0, i32 7
  %130 = load i32, ptr %129, align 4, !tbaa !99
  %131 = load ptr, ptr %9, align 8, !tbaa !31
  store i32 %130, ptr %131, align 8, !tbaa !43
  store i32 1, ptr %5, align 4
  store i32 1, ptr %12, align 4
  br label %138

132:                                              ; preds = %122
  br label %133

133:                                              ; preds = %132, %121
  %134 = load ptr, ptr %14, align 8, !tbaa !96
  %135 = getelementptr inbounds nuw %struct._lv_obj_class_t, ptr %134, i32 0, i32 0
  %136 = load ptr, ptr %135, align 8, !tbaa !100
  store ptr %136, ptr %14, align 8, !tbaa !96
  br label %104, !llvm.loop !101

137:                                              ; preds = %104
  store i32 0, ptr %12, align 4
  br label %138

138:                                              ; preds = %137, %127, %116
  call void @llvm.lifetime.end.p0(i64 8, ptr %14) #6
  %139 = load i32, ptr %12, align 4
  switch i32 %139, label %143 [
    i32 0, label %140
  ]

140:                                              ; preds = %138
  br label %141

141:                                              ; preds = %140, %96, %89
  br label %142

142:                                              ; preds = %141, %88
  store i32 0, ptr %5, align 4
  store i32 1, ptr %12, align 4
  br label %143

143:                                              ; preds = %142, %138, %83
  call void @llvm.lifetime.end.p0(i64 1, ptr %13) #6
  br label %144

144:                                              ; preds = %143, %24
  call void @llvm.lifetime.end.p0(i64 4, ptr %11) #6
  call void @llvm.lifetime.end.p0(i64 4, ptr %10) #6
  %145 = load i32, ptr %5, align 4
  ret i32 %145
}

; Function Attrs: nounwind uwtable
define ptr @lv_obj_get_style_prop(ptr noundef %0, i32 noundef %1, i8 noundef zeroext %2) #0 {
  %4 = alloca %union.lv_style_value_t, align 8
  %5 = alloca ptr, align 8
  %6 = alloca i32, align 4
  %7 = alloca i8, align 1
  %8 = alloca i32, align 4
  %9 = alloca %union.lv_style_value_t, align 8
  %10 = alloca i32, align 4
  %11 = alloca i32, align 4
  store ptr %0, ptr %5, align 8, !tbaa !30
  store i32 %1, ptr %6, align 4, !tbaa !32
  store i8 %2, ptr %7, align 1, !tbaa !43
  br label %12

12:                                               ; preds = %3
  %13 = load ptr, ptr %5, align 8, !tbaa !30
  %14 = icmp ne ptr %13, null
  br i1 %14, label %19, label %15

15:                                               ; preds = %12
  br label %16

16:                                               ; preds = %15
  br label %17

17:                                               ; preds = %16
  br label %18

18:                                               ; preds = %17, %18
  br label %18

19:                                               ; preds = %12
  br label %20

20:                                               ; preds = %19
  call void @llvm.lifetime.start.p0(i64 4, ptr %8) #6
  %21 = load i32, ptr %6, align 4, !tbaa !32
  %22 = load ptr, ptr %5, align 8, !tbaa !30
  %23 = getelementptr inbounds nuw %struct._lv_obj_t, ptr %22, i32 0, i32 7
  %24 = load i16, ptr %23, align 4, !tbaa !91
  %25 = zext i16 %24 to i32
  %26 = or i32 %21, %25
  store i32 %26, ptr %8, align 4, !tbaa !32
  call void @llvm.lifetime.start.p0(i64 8, ptr %9) #6
  call void @llvm.memset.p0.i64(ptr align 8 %9, i8 0, i64 8, i1 false)
  call void @llvm.lifetime.start.p0(i64 4, ptr %10) #6
  %27 = load ptr, ptr %5, align 8, !tbaa !30
  %28 = load i32, ptr %8, align 4, !tbaa !32
  %29 = load i8, ptr %7, align 1, !tbaa !43
  %30 = call i32 @get_selector_style_prop(ptr noundef %27, i32 noundef %28, i8 noundef zeroext %29, ptr noundef %9)
  store i32 %30, ptr %10, align 4, !tbaa !32
  %31 = load i32, ptr %10, align 4, !tbaa !32
  %32 = icmp eq i32 %31, 1
  br i1 %32, label %33, label %34

33:                                               ; preds = %20
  call void @llvm.memcpy.p0.p0.i64(ptr align 8 %4, ptr align 8 %9, i64 8, i1 false), !tbaa.struct !92
  store i32 1, ptr %11, align 4
  br label %38

34:                                               ; preds = %20
  %35 = load i8, ptr %7, align 1, !tbaa !43
  %36 = call ptr @lv_style_prop_get_default(i8 noundef zeroext %35)
  %37 = getelementptr inbounds nuw %union.lv_style_value_t, ptr %4, i32 0, i32 0
  store ptr %36, ptr %37, align 8
  store i32 1, ptr %11, align 4
  br label %38

38:                                               ; preds = %34, %33
  call void @llvm.lifetime.end.p0(i64 4, ptr %10) #6
  call void @llvm.lifetime.end.p0(i64 8, ptr %9) #6
  call void @llvm.lifetime.end.p0(i64 4, ptr %8) #6
  %39 = getelementptr inbounds nuw %union.lv_style_value_t, ptr %4, i32 0, i32 0
  %40 = load ptr, ptr %39, align 8
  ret ptr %40
}

; Function Attrs: inlinehint nounwind uwtable
define internal zeroext i8 @lv_obj_get_style_opa(ptr noundef %0, i32 noundef %1) #3 {
  %3 = alloca ptr, align 8
  %4 = alloca i32, align 4
  %5 = alloca %union.lv_style_value_t, align 8
  store ptr %0, ptr %3, align 8, !tbaa !30
  store i32 %1, ptr %4, align 4, !tbaa !32
  call void @llvm.lifetime.start.p0(i64 8, ptr %5) #6
  %6 = load ptr, ptr %3, align 8, !tbaa !30
  %7 = load i32, ptr %4, align 4, !tbaa !32
  %8 = call ptr @lv_obj_get_style_prop(ptr noundef %6, i32 noundef %7, i8 noundef zeroext 95)
  %9 = getelementptr inbounds nuw %union.lv_style_value_t, ptr %5, i32 0, i32 0
  store ptr %8, ptr %9, align 8
  %10 = load i32, ptr %5, align 8, !tbaa !43
  %11 = trunc i32 %10 to i8
  call void @llvm.lifetime.end.p0(i64 8, ptr %5) #6
  ret i8 %11
}

; Function Attrs: nounwind uwtable
define void @lv_obj_fade_out(ptr noundef %0, i32 noundef %1, i32 noundef %2) #0 {
  %4 = alloca ptr, align 8
  %5 = alloca i32, align 4
  %6 = alloca i32, align 4
  %7 = alloca %struct._lv_anim_t, align 8
  store ptr %0, ptr %4, align 8, !tbaa !30
  store i32 %1, ptr %5, align 4, !tbaa !32
  store i32 %2, ptr %6, align 4, !tbaa !32
  call void @llvm.lifetime.start.p0(i64 136, ptr %7) #6
  call void @lv_anim_init(ptr noundef %7)
  %8 = load ptr, ptr %4, align 8, !tbaa !30
  call void @lv_anim_set_var(ptr noundef %7, ptr noundef %8)
  %9 = load ptr, ptr %4, align 8, !tbaa !30
  %10 = call zeroext i8 @lv_obj_get_style_opa(ptr noundef %9, i32 noundef 0)
  %11 = zext i8 %10 to i32
  call void @lv_anim_set_values(ptr noundef %7, i32 noundef %11, i32 noundef 0)
  call void @lv_anim_set_exec_cb(ptr noundef %7, ptr noundef @fade_anim_cb)
  %12 = load i32, ptr %5, align 4, !tbaa !32
  call void @lv_anim_set_duration(ptr noundef %7, i32 noundef %12)
  %13 = load i32, ptr %6, align 4, !tbaa !32
  call void @lv_anim_set_delay(ptr noundef %7, i32 noundef %13)
  %14 = call ptr @lv_anim_start(ptr noundef %7)
  call void @llvm.lifetime.end.p0(i64 136, ptr %7) #6
  ret void
}