; Function Attrs: nounwind uwtable
define void @lv_obj_fade_out(ptr noundef %0, i32 noundef %1, i32 noundef %2) local_unnamed_addr #0 {
  %4 = alloca %union.lv_style_value_t, align 8
  %5 = alloca %struct._lv_anim_t, align 8
  call void @llvm.lifetime.start.p0(i64 136, ptr nonnull %5) #9
  call void @lv_anim_init(ptr noundef nonnull %5) #9
  call void @lv_anim_set_var(ptr noundef nonnull %5, ptr noundef %0) #9
  %.not.i.i = icmp eq ptr %0, null
  br i1 %.not.i.i, label %.preheader.i.i, label %6

.preheader.i.i:                                   ; preds = %3, %.preheader.i.i
  br label %.preheader.i.i

6:                                                ; preds = %3
  %7 = getelementptr inbounds nuw i8, ptr %0, i64 60
  %8 = load i16, ptr %7, align 4, !tbaa !62
  %9 = zext i16 %8 to i32
  call void @llvm.lifetime.start.p0(i64 8, ptr nonnull %4) #9
  store i64 0, ptr %4, align 8
  %10 = call fastcc i32 @get_prop_core(ptr noundef nonnull readonly %0, i32 noundef %9, i8 noundef zeroext 95, ptr noundef nonnull %4)
  %.not54.i.i = icmp eq i32 %10, 0
  br i1 %.not54.i.i, label %11, label %get_selector_style_prop.exit.i

11:                                               ; preds = %6
  %.037.in.i.i = load i8, ptr getelementptr inbounds nuw (i8, ptr @lv_style_builtin_prop_flag_lookup_table, i64 95), align 1, !tbaa !37
  %12 = trunc i8 %.037.in.i.i to i1
  br i1 %12, label %13, label %.thread.i.i

13:                                               ; preds = %11
  %14 = getelementptr inbounds nuw i8, ptr %0, i64 8
  %15 = load ptr, ptr %14, align 8, !tbaa !63
  %.not5261.i.i = icmp eq ptr %15, null
  br i1 %.not5261.i.i, label %.thread.i.i, label %.lr.ph63.i.i

.lr.ph63.i.i:                                     ; preds = %13, %20
  %.14262.i.i = phi ptr [ %22, %20 ], [ %15, %13 ]
  %16 = getelementptr inbounds nuw i8, ptr %.14262.i.i, i64 60
  %17 = load i16, ptr %16, align 4, !tbaa !62
  %18 = zext i16 %17 to i32
  %19 = call fastcc i32 @get_prop_core(ptr noundef %.14262.i.i, i32 noundef %18, i8 noundef zeroext 95, ptr noundef nonnull %4)
  %.not55.i.i = icmp eq i32 %19, 0
  br i1 %.not55.i.i, label %20, label %get_selector_style_prop.exit.i

20:                                               ; preds = %.lr.ph63.i.i
  %21 = getelementptr inbounds nuw i8, ptr %.14262.i.i, i64 8
  %22 = load ptr, ptr %21, align 8, !tbaa !63
  %.not52.i.i = icmp eq ptr %22, null
  br i1 %.not52.i.i, label %.thread.i.i, label %.lr.ph63.i.i, !llvm.loop !64

get_selector_style_prop.exit.i:                   ; preds = %.lr.ph63.i.i, %6
  %.sroa.0.0.copyload.i.i = load ptr, ptr %4, align 8, !tbaa !37
  br label %lv_obj_get_style_opa.exit

.thread.i.i:                                      ; preds = %20, %13, %11
  %23 = call ptr @lv_style_prop_get_default(i8 noundef zeroext 95) #9
  br label %lv_obj_get_style_opa.exit

lv_obj_get_style_opa.exit:                        ; preds = %get_selector_style_prop.exit.i, %.thread.i.i
  %.sroa.0.0.i.i = phi ptr [ %.sroa.0.0.copyload.i.i, %get_selector_style_prop.exit.i ], [ %23, %.thread.i.i ]
  call void @llvm.lifetime.end.p0(i64 8, ptr nonnull %4) #9
  %24 = ptrtoint ptr %.sroa.0.0.i.i to i64
  %25 = trunc i64 %24 to i32
  %26 = and i32 %25, 255
  call void @lv_anim_set_values(ptr noundef nonnull %5, i32 noundef %26, i32 noundef 0) #9
  call void @lv_anim_set_exec_cb(ptr noundef nonnull %5, ptr noundef nonnull @fade_anim_cb) #9
  call void @lv_anim_set_duration(ptr noundef nonnull %5, i32 noundef %1) #9
  call void @lv_anim_set_delay(ptr noundef nonnull %5, i32 noundef %2) #9
  %27 = call ptr @lv_anim_start(ptr noundef nonnull %5) #9
  call void @llvm.lifetime.end.p0(i64 136, ptr nonnull %5) #9
  ret void
}